target datalayout = "e-m:e-p270:32:32-p271:32:32-p272:64:64-i64:64-i128:128-f80:128-n8:16:32:64-S128"
target triple = "x86_64-pc-linux-gnu"

%"class.icu_77::MessagePattern" = type <{ %"class.icu_77::UObject", i32, [4 x i8], %"class.icu_77::UnicodeString", ptr, ptr, i32, [4 x i8], ptr, ptr, i32, i8, i8, i8, i8 }>
%"class.icu_77::UObject" = type { ptr }
%"class.icu_77::UnicodeString" = type { %"class.icu_77::Replaceable", %"union.icu_77::UnicodeString::StackBufferOrFields" }
%"class.icu_77::Replaceable" = type { %"class.icu_77::UObject" }
%"union.icu_77::UnicodeString::StackBufferOrFields" = type { %struct.anon.0, [32 x i8] }
%struct.anon.0 = type { i16, i32, i32, ptr }
%"class.icu_77::MessagePattern::Part" = type { i32, i32, i16, i16, i32 }

; Function Attrs: mustprogress nounwind uwtable
define linkonce_odr noundef i32 @_ZNK6icu_7714MessagePattern17getLimitPartIndexEi(ptr noundef nonnull align 8 dereferenceable(127) %0, i32 noundef %1) #5 comdat align 2 {
  %3 = alloca i32, align 4
  %4 = alloca ptr, align 8
  %5 = alloca i32, align 4
  %6 = alloca i32, align 4
  %7 = alloca i32, align 4
  store ptr %0, ptr %4, align 8, !tbaa !3
  store i32 %1, ptr %5, align 4, !tbaa !48
  %8 = load ptr, ptr %4, align 8
  call void @llvm.lifetime.start.p0(i64 4, ptr %6) #12
  %9 = load i32, ptr %5, align 4, !tbaa !48
  %10 = call noundef nonnull align 4 dereferenceable(16) ptr @_ZNK6icu_7714MessagePattern7getPartEi(ptr noundef nonnull align 8 dereferenceable(127) %8, i32 noundef %9)
  %11 = getelementptr inbounds nuw %"class.icu_77::MessagePattern::Part", ptr %10, i32 0, i32 4
  %12 = load i32, ptr %11, align 4, !tbaa !83
  store i32 %12, ptr %6, align 4, !tbaa !48
  %13 = load i32, ptr %6, align 4, !tbaa !48
  %14 = load i32, ptr %5, align 4, !tbaa !48
  %15 = icmp slt i32 %13, %14
  br i1 %15, label %16, label %18

16:                                               ; preds = %2
  %17 = load i32, ptr %5, align 4, !tbaa !48
  store i32 %17, ptr %3, align 4
  store i32 1, ptr %7, align 4
  br label %20

18:                                               ; preds = %2
  %19 = load i32, ptr %6, align 4, !tbaa !48
  store i32 %19, ptr %3, align 4
  store i32 1, ptr %7, align 4
  br label %20

20:                                               ; preds = %18, %16
  call void @llvm.lifetime.end.p0(i64 4, ptr %6) #12
  %21 = load i32, ptr %3, align 4
  ret i32 %21
}

; Function Attrs: inlinehint mustprogress uwtable
define linkonce_odr noundef nonnull align 8 dereferenceable(64) ptr @_ZN6icu_7713UnicodeString6appendERKS0_ii(ptr noundef nonnull align 8 dereferenceable(64) %0, ptr noundef nonnull align 8 dereferenceable(64) %1, i32 noundef %2, i32 noundef %3) #2 comdat align 2 {
  %5 = alloca ptr, align 8
  %6 = alloca ptr, align 8
  %7 = alloca i32, align 4
  %8 = alloca i32, align 4
  store ptr %0, ptr %5, align 8, !tbaa !33
  store ptr %1, ptr %6, align 8, !tbaa !33
  store i32 %2, ptr %7, align 4, !tbaa !48
  store i32 %3, ptr %8, align 4, !tbaa !48
  %9 = load ptr, ptr %5, align 8
  %10 = load ptr, ptr %6, align 8, !tbaa !33
  %11 = load i32, ptr %7, align 4, !tbaa !48
  %12 = load i32, ptr %8, align 4, !tbaa !48
  %13 = call noundef nonnull align 8 dereferenceable(64) ptr @_ZN6icu_7713UnicodeString8doAppendERKS0_ii(ptr noundef nonnull align 8 dereferenceable(64) %9, ptr noundef nonnull align 8 dereferenceable(64) %10, i32 noundef %11, i32 noundef %12)
  ret ptr %13
}

; Function Attrs: mustprogress nounwind uwtable
define linkonce_odr noundef i32 @_ZNK6icu_7714MessagePattern4Part8getIndexEv(ptr noundef nonnull align 4 dereferenceable(16) %0) #5 comdat align 2 {
  %2 = alloca ptr, align 8
  store ptr %0, ptr %2, align 8, !tbaa !70
  %3 = load ptr, ptr %2, align 8
  %4 = getelementptr inbounds nuw %"class.icu_77::MessagePattern::Part", ptr %3, i32 0, i32 1
  %5 = load i32, ptr %4, align 4, !tbaa !75
  ret i32 %5
}

; Function Attrs: mustprogress nounwind uwtable
define linkonce_odr noundef i32 @_ZNK6icu_7714MessagePattern4Part7getTypeEv(ptr noundef nonnull align 4 dereferenceable(16) %0) #5 comdat align 2 {
  %2 = alloca ptr, align 8
  store ptr %0, ptr %2, align 8, !tbaa !70
  %3 = load ptr, ptr %2, align 8
  %4 = getelementptr inbounds nuw %"class.icu_77::MessagePattern::Part", ptr %3, i32 0, i32 0
  %5 = load i32, ptr %4, align 4, !tbaa !71
  ret i32 %5
}

; Function Attrs: mustprogress nounwind uwtable
define linkonce_odr noundef i32 @_ZNK6icu_7714MessagePattern4Part8getLimitEv(ptr noundef nonnull align 4 dereferenceable(16) %0) #5 comdat align 2 {
  %2 = alloca ptr, align 8
  store ptr %0, ptr %2, align 8, !tbaa !70
  %3 = load ptr, ptr %2, align 8
  %4 = getelementptr inbounds nuw %"class.icu_77::MessagePattern::Part", ptr %3, i32 0, i32 1
  %5 = load i32, ptr %4, align 4, !tbaa !75
  %6 = getelementptr inbounds nuw %"class.icu_77::MessagePattern::Part", ptr %3, i32 0, i32 2
  %7 = load i16, ptr %6, align 4, !tbaa !76
  %8 = zext i16 %7 to i32
  %9 = add nsw i32 %5, %8
  ret i32 %9
}

; Function Attrs: mustprogress nounwind uwtable
define linkonce_odr noundef nonnull align 4 dereferenceable(16) ptr @_ZNK6icu_7714MessagePattern7getPartEi(ptr noundef nonnull align 8 dereferenceable(127) %0, i32 noundef %1) #5 comdat align 2 {
  %3 = alloca ptr, align 8
  %4 = alloca i32, align 4
  store ptr %0, ptr %3, align 8, !tbaa !3
  store i32 %1, ptr %4, align 4, !tbaa !48
  %5 = load ptr, ptr %3, align 8
  %6 = getelementptr inbounds nuw %"class.icu_77::MessagePattern", ptr %5, i32 0, i32 5
  %7 = load ptr, ptr %6, align 8, !tbaa !23
  %8 = load i32, ptr %4, align 4, !tbaa !48
  %9 = sext i32 %8 to i64
  %10 = getelementptr inbounds %"class.icu_77::MessagePattern::Part", ptr %7, i64 %9
  ret ptr %10
}

; Function Attrs: mustprogress nounwind uwtable
define linkonce_odr noundef nonnull align 8 dereferenceable(64) ptr @_ZNK6icu_7714MessagePattern16getPatternStringEv(ptr noundef nonnull align 8 dereferenceable(127) %0) #5 comdat align 2 {
  %2 = alloca ptr, align 8
  store ptr %0, ptr %2, align 8, !tbaa !3
  %3 = load ptr, ptr %2, align 8
  %4 = getelementptr inbounds nuw %"class.icu_77::MessagePattern", ptr %3, i32 0, i32 3
  ret ptr %4
}

; Function Attrs: mustprogress uwtable
define noundef nonnull align 8 dereferenceable(64) ptr @_ZN6icu_7711MessageImpl33appendSubMessageWithoutSkipSyntaxERKNS_14MessagePatternEiRNS_13UnicodeStringE(ptr noundef nonnull align 8 dereferenceable(127) %0, i32 noundef %1, ptr noundef nonnull align 8 dereferenceable(64) %2) #0 align 2 {
  %4 = alloca ptr, align 8
  %5 = alloca ptr, align 8
  %6 = alloca i32, align 4
  %7 = alloca ptr, align 8
  %8 = alloca ptr, align 8
  %9 = alloca i32, align 4
  %10 = alloca i32, align 4
  %11 = alloca ptr, align 8
  %12 = alloca i32, align 4
  %13 = alloca i32, align 4
  %14 = alloca i32, align 4
  store ptr %0, ptr %5, align 8, !tbaa !3
  store i32 %1, ptr %6, align 4, !tbaa !48
  store ptr %2, ptr %7, align 8, !tbaa !33
  call void @llvm.lifetime.start.p0(i64 8, ptr %8) #12
  %15 = load ptr, ptr %5, align 8, !tbaa !3
  %16 = call noundef nonnull align 8 dereferenceable(64) ptr @_ZNK6icu_7714MessagePattern16getPatternStringEv(ptr noundef nonnull align 8 dereferenceable(127) %15)
  store ptr %16, ptr %8, align 8, !tbaa !33
  call void @llvm.lifetime.start.p0(i64 4, ptr %9) #12
  %17 = load ptr, ptr %5, align 8, !tbaa !3
  %18 = load i32, ptr %6, align 4, !tbaa !48
  %19 = call noundef nonnull align 4 dereferenceable(16) ptr @_ZNK6icu_7714MessagePattern7getPartEi(ptr noundef nonnull align 8 dereferenceable(127) %17, i32 noundef %18)
  %20 = call noundef i32 @_ZNK6icu_7714MessagePattern4Part8getLimitEv(ptr noundef nonnull align 4 dereferenceable(16) %19)
  store i32 %20, ptr %9, align 4, !tbaa !48
  call void @llvm.lifetime.start.p0(i64 4, ptr %10) #12
  %21 = load i32, ptr %6, align 4, !tbaa !48
  store i32 %21, ptr %10, align 4, !tbaa !48
  br label %22

22:                                               ; preds = %83, %3
  call void @llvm.lifetime.start.p0(i64 8, ptr %11) #12
  %23 = load ptr, ptr %5, align 8, !tbaa !3
  %24 = load i32, ptr %10, align 4, !tbaa !48
  %25 = add nsw i32 %24, 1
  store i32 %25, ptr %10, align 4, !tbaa !48
  %26 = call noundef nonnull align 4 dereferenceable(16) ptr @_ZNK6icu_7714MessagePattern7getPartEi(ptr noundef nonnull align 8 dereferenceable(127) %23, i32 noundef %25)
  store ptr %26, ptr %11, align 8, !tbaa !70
  call void @llvm.lifetime.start.p0(i64 4, ptr %12) #12
  %27 = load ptr, ptr %11, align 8, !tbaa !70
  %28 = call noundef i32 @_ZNK6icu_7714MessagePattern4Part7getTypeEv(ptr noundef nonnull align 4 dereferenceable(16) %27)
  store i32 %28, ptr %12, align 4, !tbaa !80
  call void @llvm.lifetime.start.p0(i64 4, ptr %13) #12
  %29 = load ptr, ptr %11, align 8, !tbaa !70
  %30 = call noundef i32 @_ZNK6icu_7714MessagePattern4Part8getIndexEv(ptr noundef nonnull align 4 dereferenceable(16) %29)
  store i32 %30, ptr %13, align 4, !tbaa !48
  %31 = load i32, ptr %12, align 4, !tbaa !80
  %32 = icmp eq i32 %31, 1
  br i1 %32, label %33, label %41

33:                                               ; preds = %22
  %34 = load ptr, ptr %7, align 8, !tbaa !33
  %35 = load ptr, ptr %8, align 8, !tbaa !33
  %36 = load i32, ptr %9, align 4, !tbaa !48
  %37 = load i32, ptr %13, align 4, !tbaa !48
  %38 = load i32, ptr %9, align 4, !tbaa !48
  %39 = sub nsw i32 %37, %38
  %40 = call noundef nonnull align 8 dereferenceable(64) ptr @_ZN6icu_7713UnicodeString6appendERKS0_ii(ptr noundef nonnull align 8 dereferenceable(64) %34, ptr noundef nonnull align 8 dereferenceable(64) %35, i32 noundef %36, i32 noundef %39)
  store ptr %40, ptr %4, align 8
  store i32 1, ptr %14, align 4
  br label %81

41:                                               ; preds = %22
  %42 = load i32, ptr %12, align 4, !tbaa !80
  %43 = icmp eq i32 %42, 2
  br i1 %43, label %44, label %54

44:                                               ; preds = %41
  %45 = load ptr, ptr %7, align 8, !tbaa !33
  %46 = load ptr, ptr %8, align 8, !tbaa !33
  %47 = load i32, ptr %9, align 4, !tbaa !48
  %48 = load i32, ptr %13, align 4, !tbaa !48
  %49 = load i32, ptr %9, align 4, !tbaa !48
  %50 = sub nsw i32 %48, %49
  %51 = call noundef nonnull align 8 dereferenceable(64) ptr @_ZN6icu_7713UnicodeString6appendERKS0_ii(ptr noundef nonnull align 8 dereferenceable(64) %45, ptr noundef nonnull align 8 dereferenceable(64) %46, i32 noundef %47, i32 noundef %50)
  %52 = load ptr, ptr %11, align 8, !tbaa !70
  %53 = call noundef i32 @_ZNK6icu_7714MessagePattern4Part8getLimitEv(ptr noundef nonnull align 4 dereferenceable(16) %52)
  store i32 %53, ptr %9, align 4, !tbaa !48
  br label %79

54:                                               ; preds = %41
  %55 = load i32, ptr %12, align 4, !tbaa !80
  %56 = icmp eq i32 %55, 5
  br i1 %56, label %57, label %78

57:                                               ; preds = %54
  %58 = load ptr, ptr %7, align 8, !tbaa !33
  %59 = load ptr, ptr %8, align 8, !tbaa !33
  %60 = load i32, ptr %9, align 4, !tbaa !48
  %61 = load i32, ptr %13, align 4, !tbaa !48
  %62 = load i32, ptr %9, align 4, !tbaa !48
  %63 = sub nsw i32 %61, %62
  %64 = call noundef nonnull align 8 dereferenceable(64) ptr @_ZN6icu_7713UnicodeString6appendERKS0_ii(ptr noundef nonnull align 8 dereferenceable(64) %58, ptr noundef nonnull align 8 dereferenceable(64) %59, i32 noundef %60, i32 noundef %63)
  %65 = load i32, ptr %13, align 4, !tbaa !48
  store i32 %65, ptr %9, align 4, !tbaa !48
  %66 = load ptr, ptr %5, align 8, !tbaa !3
  %67 = load i32, ptr %10, align 4, !tbaa !48
  %68 = call noundef i32 @_ZNK6icu_7714MessagePattern17getLimitPartIndexEi(ptr noundef nonnull align 8 dereferenceable(127) %66, i32 noundef %67)
  store i32 %68, ptr %10, align 4, !tbaa !48
  %69 = load ptr, ptr %5, align 8, !tbaa !3
  %70 = load i32, ptr %10, align 4, !tbaa !48
  %71 = call noundef nonnull align 4 dereferenceable(16) ptr @_ZNK6icu_7714MessagePattern7getPartEi(ptr noundef nonnull align 8 dereferenceable(127) %69, i32 noundef %70)
  %72 = call noundef i32 @_ZNK6icu_7714MessagePattern4Part8getLimitEv(ptr noundef nonnull align 4 dereferenceable(16) %71)
  store i32 %72, ptr %13, align 4, !tbaa !48
  %73 = load ptr, ptr %8, align 8, !tbaa !33
  %74 = load i32, ptr %9, align 4, !tbaa !48
  %75 = load i32, ptr %13, align 4, !tbaa !48
  %76 = load ptr, ptr %7, align 8, !tbaa !33
  call void @_ZN6icu_7711MessageImpl24appendReducedApostrophesERKNS_13UnicodeStringEiiRS1_(ptr noundef nonnull align 8 dereferenceable(64) %73, i32 noundef %74, i32 noundef %75, ptr noundef nonnull align 8 dereferenceable(64) %76)
  %77 = load i32, ptr %13, align 4, !tbaa !48
  store i32 %77, ptr %9, align 4, !tbaa !48
  br label %78

78:                                               ; preds = %57, %54
  br label %79

79:                                               ; preds = %78, %44
  br label %80

80:                                               ; preds = %79
  store i32 0, ptr %14, align 4
  br label %81

81:                                               ; preds = %80, %33
  call void @llvm.lifetime.end.p0(i64 4, ptr %13) #12
  call void @llvm.lifetime.end.p0(i64 4, ptr %12) #12
  call void @llvm.lifetime.end.p0(i64 8, ptr %11) #12
  %82 = load i32, ptr %14, align 4
  switch i32 %82, label %84 [
    i32 0, label %83
  ]

83:                                               ; preds = %81
  br label %22, !llvm.loop !100

84:                                               ; preds = %81
  call void @llvm.lifetime.end.p0(i64 4, ptr %10) #12
  call void @llvm.lifetime.end.p0(i64 4, ptr %9) #12
  call void @llvm.lifetime.end.p0(i64 8, ptr %8) #12
  %85 = load ptr, ptr %4, align 8
  ret ptr %85
}