; Function Attrs: mustprogress uwtable
define noundef nonnull align 8 dereferenceable(64) ptr @_ZN6icu_7711MessageImpl33appendSubMessageWithoutSkipSyntaxERKNS_14MessagePatternEiRNS_13UnicodeStringE(ptr noundef nonnull align 8 dereferenceable(127) %0, i32 noundef %1, ptr noundef nonnull align 8 dereferenceable(64) %2) local_unnamed_addr #2 align 2 {
  %4 = getelementptr inbounds nuw i8, ptr %0, i64 16
  %5 = getelementptr inbounds nuw i8, ptr %0, i64 88
  %6 = load ptr, ptr %5, align 8, !tbaa !26
  %7 = sext i32 %1 to i64
  %8 = getelementptr inbounds %"class.icu_77::MessagePattern::Part", ptr %6, i64 %7
  %9 = getelementptr inbounds nuw i8, ptr %8, i64 4
  %10 = load i32, ptr %9, align 4, !tbaa !48
  %11 = getelementptr inbounds nuw i8, ptr %8, i64 8
  %12 = load i16, ptr %11, align 4, !tbaa !49
  %13 = zext i16 %12 to i32
  %14 = add nsw i32 %10, %13
  br label %15

15:                                               ; preds = %45, %3
  %16 = phi ptr [ %6, %3 ], [ %.pre, %45 ]
  %.041 = phi i32 [ %1, %3 ], [ %.142, %45 ]
  %.039 = phi i32 [ %14, %3 ], [ %.140, %45 ]
  %17 = add nsw i32 %.041, 1
  %18 = sext i32 %17 to i64
  %19 = getelementptr inbounds %"class.icu_77::MessagePattern::Part", ptr %16, i64 %18
  %20 = load i32, ptr %19, align 4, !tbaa !44
  %21 = getelementptr inbounds nuw i8, ptr %19, i64 4
  %22 = load i32, ptr %21, align 4, !tbaa !48
  switch i32 %20, label %45 [
    i32 1, label %46
    i32 2, label %23
    i32 5, label %31
  ]

23:                                               ; preds = %15
  %24 = sub nsw i32 %22, %.039
  %25 = tail call noundef nonnull align 8 dereferenceable(64) ptr @_ZN6icu_7713UnicodeString8doAppendERKS0_ii(ptr noundef nonnull align 8 dereferenceable(64) %2, ptr noundef nonnull align 8 dereferenceable(64) %4, i32 noundef %.039, i32 noundef %24)
  %26 = load i32, ptr %21, align 4, !tbaa !48
  %27 = getelementptr inbounds nuw i8, ptr %19, i64 8
  %28 = load i16, ptr %27, align 4, !tbaa !49
  %29 = zext i16 %28 to i32
  %30 = add nsw i32 %26, %29
  br label %45

31:                                               ; preds = %15
  %32 = sub nsw i32 %22, %.039
  %33 = tail call noundef nonnull align 8 dereferenceable(64) ptr @_ZN6icu_7713UnicodeString8doAppendERKS0_ii(ptr noundef nonnull align 8 dereferenceable(64) %2, ptr noundef nonnull align 8 dereferenceable(64) %4, i32 noundef %.039, i32 noundef %32)
  %34 = load ptr, ptr %5, align 8, !tbaa !26
  %35 = getelementptr inbounds %"class.icu_77::MessagePattern::Part", ptr %34, i64 %18, i32 4
  %36 = load i32, ptr %35, align 4, !tbaa !51
  %..i = tail call noundef i32 @llvm.smax.i32(i32 %36, i32 %17)
  %37 = sext i32 %..i to i64
  %38 = getelementptr inbounds %"class.icu_77::MessagePattern::Part", ptr %34, i64 %37
  %39 = getelementptr inbounds nuw i8, ptr %38, i64 4
  %40 = load i32, ptr %39, align 4, !tbaa !48
  %41 = getelementptr inbounds nuw i8, ptr %38, i64 8
  %42 = load i16, ptr %41, align 4, !tbaa !49
  %43 = zext i16 %42 to i32
  %44 = add nsw i32 %40, %43
  tail call void @_ZN6icu_7711MessageImpl24appendReducedApostrophesERKNS_13UnicodeStringEiiRS1_(ptr noundef nonnull align 8 dereferenceable(64) %4, i32 noundef %22, i32 noundef %44, ptr noundef nonnull align 8 dereferenceable(64) %2)
  br label %45

45:                                               ; preds = %15, %31, %23
  %.142 = phi i32 [ %17, %23 ], [ %..i, %31 ], [ %17, %15 ]
  %.140 = phi i32 [ %30, %23 ], [ %44, %31 ], [ %.039, %15 ]
  %.pre = load ptr, ptr %5, align 8, !tbaa !26
  br label %15, !llvm.loop !69

46:                                               ; preds = %15
  %47 = sub nsw i32 %22, %.039
  %48 = tail call noundef nonnull align 8 dereferenceable(64) ptr @_ZN6icu_7713UnicodeString8doAppendERKS0_ii(ptr noundef nonnull align 8 dereferenceable(64) %2, ptr noundef nonnull align 8 dereferenceable(64) %4, i32 noundef %.039, i32 noundef %47)
  ret ptr %48
}